target datalayout = "e-m:e-p270:32:32-p271:32:32-p272:64:64-i64:64-i128:128-f80:128-n8:16:32:64-S128"
target triple = "x86_64-pc-linux-gnu"

%struct._priv_exr_context_t = type { i8, i8, i8, i8, i8, i8, i8, i8, %struct.exr_attr_string_t, %struct.exr_attr_string_t, ptr, ptr, ptr, ptr, ptr, ptr, ptr, ptr, i32, i32, i32, i32, i32, float, ptr, ptr, ptr, i64, ptr, ptr, i64, i32, i32, i32, i32, %struct._priv_exr_part_t, ptr, ptr, %struct.exr_attribute_list, %union.pthread_mutex_t, i8, i8, [2 x i8], i32 }
%struct.exr_attr_string_t = type { i32, i32, ptr }
%struct._priv_exr_part_t = type { i32, i32, %struct.exr_attribute_list, ptr, ptr, ptr, ptr, ptr, ptr, ptr, ptr, ptr, ptr, ptr, ptr, ptr, ptr, %struct.exr_attr_box2i_t, %struct.exr_attr_box2i_t, i32, i32, i32, float, i32, i32, ptr, ptr, ptr, ptr, i64, i16, i16, i32, i64, i64 }
%struct.exr_attr_box2i_t = type { %struct.exr_attr_v2i_t, %struct.exr_attr_v2i_t }
%struct.exr_attr_v2i_t = type { i32, i32 }
%struct.exr_attribute_list = type { i32, i32, ptr, ptr }
%union.pthread_mutex_t = type { %struct.__pthread_mutex_s }
%struct.__pthread_mutex_s = type { i32, i32, i32, i32, i32, i16, i16, %struct.__pthread_internal_list }
%struct.__pthread_internal_list = type { ptr, ptr }
%struct.exr_attribute_t = type { ptr, ptr, i8, i8, [2 x i8], i32, %union.anon }
%union.anon = type { double }

@.str = private unnamed_addr constant [29 x i8] c"Part index (%d) out of range\00", align 1
@.str.6 = private unnamed_addr constant [12 x i8] c"compression\00", align 1
@.str.42 = private unnamed_addr constant [61 x i8] c"'%s' requested type 'uc', but stored attributes is type '%s'\00", align 1
@.str.43 = private unnamed_addr constant [60 x i8] c"'%s' value for compression type (%d) out of range (%d - %d)\00", align 1

; Function Attrs: inlinehint nounwind uwtable
define internal void @internal_exr_unlock(ptr noundef %0) #2 {
  %2 = alloca ptr, align 8
  %3 = alloca ptr, align 8
  store ptr %0, ptr %2, align 8, !tbaa !3
  call void @llvm.lifetime.start.p0(i64 8, ptr %3) #8
  %4 = load ptr, ptr %2, align 8, !tbaa !3
  %5 = ptrtoint ptr %4 to i64
  %6 = inttoptr i64 %5 to ptr
  store ptr %6, ptr %3, align 8, !tbaa !3
  %7 = load ptr, ptr %3, align 8, !tbaa !3
  %8 = getelementptr inbounds nuw %struct._priv_exr_context_t, ptr %7, i32 0, i32 39
  %9 = call i32 @pthread_mutex_unlock(ptr noundef %8) #8
  call void @llvm.lifetime.end.p0(i64 8, ptr %3) #8
  ret void
}

; Function Attrs: inlinehint nounwind uwtable
define internal void @internal_exr_lock(ptr noundef %0) #2 {
  %2 = alloca ptr, align 8
  %3 = alloca ptr, align 8
  store ptr %0, ptr %2, align 8, !tbaa !3
  call void @llvm.lifetime.start.p0(i64 8, ptr %3) #8
  %4 = load ptr, ptr %2, align 8, !tbaa !3
  %5 = ptrtoint ptr %4 to i64
  %6 = inttoptr i64 %5 to ptr
  store ptr %6, ptr %3, align 8, !tbaa !3
  %7 = load ptr, ptr %3, align 8, !tbaa !3
  %8 = getelementptr inbounds nuw %struct._priv_exr_context_t, ptr %7, i32 0, i32 39
  %9 = call i32 @pthread_mutex_lock(ptr noundef %8) #8
  call void @llvm.lifetime.end.p0(i64 8, ptr %3) #8
  ret void
}

; Function Attrs: nounwind uwtable
define i32 @exr_attr_set_compression(ptr noundef %0, i32 noundef %1, ptr noundef %2, i32 noundef %3) #0 {
  %5 = alloca i32, align 4
  %6 = alloca ptr, align 8
  %7 = alloca i32, align 4
  %8 = alloca ptr, align 8
  %9 = alloca i32, align 4
  %10 = alloca i8, align 1
  %11 = alloca i32, align 4
  %12 = alloca ptr, align 8
  %13 = alloca i32, align 4
  %14 = alloca ptr, align 8
  store ptr %0, ptr %6, align 8, !tbaa !3
  store i32 %1, ptr %7, align 4, !tbaa !8
  store ptr %2, ptr %8, align 8, !tbaa !36
  store i32 %3, ptr %9, align 4, !tbaa !8
  call void @llvm.lifetime.start.p0(i64 1, ptr %10) #8
  %15 = load i32, ptr %9, align 4, !tbaa !8
  %16 = trunc i32 %15 to i8
  store i8 %16, ptr %10, align 1, !tbaa !42
  %17 = load i32, ptr %9, align 4, !tbaa !8
  %18 = icmp uge i32 %17, 10
  br i1 %18, label %19, label %27

19:                                               ; preds = %4
  %20 = load ptr, ptr %6, align 8, !tbaa !3
  %21 = getelementptr inbounds nuw %struct._priv_exr_context_t, ptr %20, i32 0, i32 14
  %22 = load ptr, ptr %21, align 8, !tbaa !27
  %23 = load ptr, ptr %6, align 8, !tbaa !3
  %24 = load ptr, ptr %8, align 8, !tbaa !36
  %25 = load i32, ptr %9, align 4, !tbaa !8
  %26 = call i32 (ptr, i32, ptr, ...) %22(ptr noundef %23, i32 noundef 4, ptr noundef @.str.43, ptr noundef %24, i32 noundef %25, i32 noundef 0, i32 noundef 10)
  store i32 %26, ptr %5, align 4
  store i32 1, ptr %11, align 4
  br label %158

27:                                               ; preds = %4
  %28 = load ptr, ptr %8, align 8, !tbaa !36
  %29 = icmp ne ptr %28, null
  br i1 %29, label %30, label %39

30:                                               ; preds = %27
  %31 = load ptr, ptr %8, align 8, !tbaa !36
  %32 = call i32 @strcmp(ptr noundef %31, ptr noundef @.str.6) #9
  %33 = icmp eq i32 0, %32
  br i1 %33, label %34, label %39

34:                                               ; preds = %30
  %35 = load ptr, ptr %6, align 8, !tbaa !3
  %36 = load i32, ptr %7, align 4, !tbaa !8
  %37 = load i32, ptr %9, align 4, !tbaa !8
  %38 = call i32 @exr_set_compression(ptr noundef %35, i32 noundef %36, i32 noundef %37)
  store i32 %38, ptr %5, align 4
  store i32 1, ptr %11, align 4
  br label %158

39:                                               ; preds = %30, %27
  call void @llvm.lifetime.start.p0(i64 8, ptr %12) #8
  store ptr null, ptr %12, align 8, !tbaa !35
  call void @llvm.lifetime.start.p0(i64 4, ptr %13) #8
  store i32 0, ptr %13, align 4, !tbaa !8
  call void @llvm.lifetime.start.p0(i64 8, ptr %14) #8
  %40 = load ptr, ptr %6, align 8, !tbaa !3
  %41 = icmp ne ptr %40, null
  br i1 %41, label %43, label %42

42:                                               ; preds = %39
  store i32 2, ptr %5, align 4
  store i32 1, ptr %11, align 4
  br label %157

43:                                               ; preds = %39
  %44 = load ptr, ptr %6, align 8, !tbaa !3
  call void @internal_exr_lock(ptr noundef %44)
  %45 = load i32, ptr %7, align 4, !tbaa !8
  %46 = icmp slt i32 %45, 0
  br i1 %46, label %53, label %47

47:                                               ; preds = %43
  %48 = load i32, ptr %7, align 4, !tbaa !8
  %49 = load ptr, ptr %6, align 8, !tbaa !3
  %50 = getelementptr inbounds nuw %struct._priv_exr_context_t, ptr %49, i32 0, i32 34
  %51 = load i32, ptr %50, align 4, !tbaa !26
  %52 = icmp sge i32 %48, %51
  br i1 %52, label %53, label %61

53:                                               ; preds = %47, %43
  %54 = load ptr, ptr %6, align 8, !tbaa !3
  call void @internal_exr_unlock(ptr noundef %54)
  %55 = load ptr, ptr %6, align 8, !tbaa !3
  %56 = getelementptr inbounds nuw %struct._priv_exr_context_t, ptr %55, i32 0, i32 14
  %57 = load ptr, ptr %56, align 8, !tbaa !27
  %58 = load ptr, ptr %6, align 8, !tbaa !3
  %59 = load i32, ptr %7, align 4, !tbaa !8
  %60 = call i32 (ptr, i32, ptr, ...) %57(ptr noundef %58, i32 noundef 4, ptr noundef @.str, i32 noundef %59)
  store i32 %60, ptr %5, align 4
  store i32 1, ptr %11, align 4
  br label %157

61:                                               ; preds = %47
  %62 = load ptr, ptr %6, align 8, !tbaa !3
  %63 = getelementptr inbounds nuw %struct._priv_exr_context_t, ptr %62, i32 0, i32 37
  %64 = load ptr, ptr %63, align 8, !tbaa !28
  %65 = load i32, ptr %7, align 4, !tbaa !8
  %66 = sext i32 %65 to i64
  %67 = getelementptr inbounds ptr, ptr %64, i64 %66
  %68 = load ptr, ptr %67, align 8, !tbaa !29
  store ptr %68, ptr %14, align 8, !tbaa !29
  %69 = load ptr, ptr %6, align 8, !tbaa !3
  %70 = getelementptr inbounds nuw %struct._priv_exr_context_t, ptr %69, i32 0, i32 0
  %71 = load i8, ptr %70, align 8, !tbaa !12
  %72 = zext i8 %71 to i32
  %73 = icmp eq i32 %72, 0
  br i1 %73, label %74, label %81

74:                                               ; preds = %61
  %75 = load ptr, ptr %6, align 8, !tbaa !3
  call void @internal_exr_unlock(ptr noundef %75)
  %76 = load ptr, ptr %6, align 8, !tbaa !3
  %77 = getelementptr inbounds nuw %struct._priv_exr_context_t, ptr %76, i32 0, i32 12
  %78 = load ptr, ptr %77, align 8, !tbaa !31
  %79 = load ptr, ptr %6, align 8, !tbaa !3
  %80 = call i32 %78(ptr noundef %79, i32 noundef 8)
  store i32 %80, ptr %5, align 4
  store i32 1, ptr %11, align 4
  br label %157

81:                                               ; preds = %61
  %82 = load ptr, ptr %6, align 8, !tbaa !3
  %83 = getelementptr inbounds nuw %struct._priv_exr_context_t, ptr %82, i32 0, i32 0
  %84 = load i8, ptr %83, align 8, !tbaa !12
  %85 = zext i8 %84 to i32
  %86 = icmp eq i32 %85, 3
  br i1 %86, label %87, label %94

87:                                               ; preds = %81
  %88 = load ptr, ptr %6, align 8, !tbaa !3
  call void @internal_exr_unlock(ptr noundef %88)
  %89 = load ptr, ptr %6, align 8, !tbaa !3
  %90 = getelementptr inbounds nuw %struct._priv_exr_context_t, ptr %89, i32 0, i32 12
  %91 = load ptr, ptr %90, align 8, !tbaa !31
  %92 = load ptr, ptr %6, align 8, !tbaa !3
  %93 = call i32 %91(ptr noundef %92, i32 noundef 21)
  store i32 %93, ptr %5, align 4
  store i32 1, ptr %11, align 4
  br label %157

94:                                               ; preds = %81
  %95 = load ptr, ptr %6, align 8, !tbaa !3
  %96 = load ptr, ptr %14, align 8, !tbaa !29
  %97 = getelementptr inbounds nuw %struct._priv_exr_part_t, ptr %96, i32 0, i32 2
  %98 = load ptr, ptr %8, align 8, !tbaa !36
  %99 = call i32 @exr_attr_list_find_by_name(ptr noundef %95, ptr noundef %97, ptr noundef %98, ptr noundef %12)
  store i32 %99, ptr %13, align 4, !tbaa !8
  %100 = load i32, ptr %13, align 4, !tbaa !8
  %101 = icmp eq i32 %100, 15
  br i1 %101, label %102, label %123

102:                                              ; preds = %94
  %103 = load ptr, ptr %6, align 8, !tbaa !3
  %104 = getelementptr inbounds nuw %struct._priv_exr_context_t, ptr %103, i32 0, i32 0
  %105 = load i8, ptr %104, align 8, !tbaa !12
  %106 = zext i8 %105 to i32
  %107 = icmp ne i32 %106, 1
  br i1 %107, label %108, label %117

108:                                              ; preds = %102
  %109 = load ptr, ptr %6, align 8, !tbaa !3
  %110 = getelementptr inbounds nuw %struct._priv_exr_context_t, ptr %109, i32 0, i32 0
  %111 = load i8, ptr %110, align 8, !tbaa !12
  %112 = zext i8 %111 to i32
  %113 = icmp ne i32 %112, 4
  br i1 %113, label %114, label %117

114:                                              ; preds = %108
  %115 = load ptr, ptr %6, align 8, !tbaa !3
  call void @internal_exr_unlock(ptr noundef %115)
  %116 = load i32, ptr %13, align 4, !tbaa !8
  store i32 %116, ptr %5, align 4
  store i32 1, ptr %11, align 4
  br label %157

117:                                              ; preds = %108, %102
  %118 = load ptr, ptr %6, align 8, !tbaa !3
  %119 = load ptr, ptr %14, align 8, !tbaa !29
  %120 = getelementptr inbounds nuw %struct._priv_exr_part_t, ptr %119, i32 0, i32 2
  %121 = load ptr, ptr %8, align 8, !tbaa !36
  %122 = call i32 @exr_attr_list_add(ptr noundef %118, ptr noundef %120, ptr noundef %121, i32 noundef 5, i32 noundef 0, ptr noundef null, ptr noundef %12)
  store i32 %122, ptr %13, align 4, !tbaa !8
  br label %147

123:                                              ; preds = %94
  %124 = load i32, ptr %13, align 4, !tbaa !8
  %125 = icmp eq i32 %124, 0
  br i1 %125, label %126, label %143

126:                                              ; preds = %123
  %127 = load ptr, ptr %12, align 8, !tbaa !35
  %128 = getelementptr inbounds nuw %struct.exr_attribute_t, ptr %127, i32 0, i32 5
  %129 = load i32, ptr %128, align 4, !tbaa !39
  %130 = icmp ne i32 %129, 5
  br i1 %130, label %131, label %142

131:                                              ; preds = %126
  %132 = load ptr, ptr %6, align 8, !tbaa !3
  call void @internal_exr_unlock(ptr noundef %132)
  %133 = load ptr, ptr %6, align 8, !tbaa !3
  %134 = getelementptr inbounds nuw %struct._priv_exr_context_t, ptr %133, i32 0, i32 14
  %135 = load ptr, ptr %134, align 8, !tbaa !27
  %136 = load ptr, ptr %6, align 8, !tbaa !3
  %137 = load ptr, ptr %8, align 8, !tbaa !36
  %138 = load ptr, ptr %12, align 8, !tbaa !35
  %139 = getelementptr inbounds nuw %struct.exr_attribute_t, ptr %138, i32 0, i32 1
  %140 = load ptr, ptr %139, align 8, !tbaa !41
  %141 = call i32 (ptr, i32, ptr, ...) %135(ptr noundef %136, i32 noundef 16, ptr noundef @.str.42, ptr noundef %137, ptr noundef %140)
  store i32 %141, ptr %5, align 4
  store i32 1, ptr %11, align 4
  br label %157

142:                                              ; preds = %126
  br label %146

143:                                              ; preds = %123
  %144 = load ptr, ptr %6, align 8, !tbaa !3
  call void @internal_exr_unlock(ptr noundef %144)
  %145 = load i32, ptr %13, align 4, !tbaa !8
  store i32 %145, ptr %5, align 4
  store i32 1, ptr %11, align 4
  br label %157

146:                                              ; preds = %142
  br label %147

147:                                              ; preds = %146, %117
  %148 = load i32, ptr %13, align 4, !tbaa !8
  %149 = icmp eq i32 %148, 0
  br i1 %149, label %150, label %154

150:                                              ; preds = %147
  %151 = load i8, ptr %10, align 1, !tbaa !42
  %152 = load ptr, ptr %12, align 8, !tbaa !35
  %153 = getelementptr inbounds nuw %struct.exr_attribute_t, ptr %152, i32 0, i32 6
  store i8 %151, ptr %153, align 8, !tbaa !42
  br label %154

154:                                              ; preds = %150, %147
  %155 = load ptr, ptr %6, align 8, !tbaa !3
  call void @internal_exr_unlock(ptr noundef %155)
  %156 = load i32, ptr %13, align 4, !tbaa !8
  store i32 %156, ptr %5, align 4
  store i32 1, ptr %11, align 4
  br label %157

157:                                              ; preds = %154, %143, %131, %114, %87, %74, %53, %42
  call void @llvm.lifetime.end.p0(i64 8, ptr %14) #8
  call void @llvm.lifetime.end.p0(i64 4, ptr %13) #8
  call void @llvm.lifetime.end.p0(i64 8, ptr %12) #8
  br label %158

158:                                              ; preds = %157, %34, %19
  call void @llvm.lifetime.end.p0(i64 1, ptr %10) #8
  %159 = load i32, ptr %5, align 4
  ret i32 %159
}